; Function Attrs: mustprogress nounwind uwtable
define dso_local noundef i32 @_ZNK5clang6SrcMgr12ContentCache19getMemoryBufferKindEv(ptr noundef nonnull readonly align 8 captures(none) dereferenceable(49) %0) local_unnamed_addr #1 align 2 {
  %2 = load ptr, ptr %0, align 8
  %.not.i = icmp eq ptr %2, null
  br i1 %.not.i, label %8, label %3

3:                                                ; preds = %1
  %4 = load ptr, ptr %2, align 8
  %5 = getelementptr inbounds nuw i8, ptr %4, i64 32
  %6 = load ptr, ptr %5, align 8
  %7 = tail call noundef i32 %6(ptr noundef nonnull align 8 dereferenceable(24) %2) #26
  br label %8

8:                                                ; preds = %1, %3
  %.0 = phi i32 [ %7, %3 ], [ 0, %1 ]
  ret i32 %.0
}